; Function Attrs: mustprogress uwtable
define void @_ZN7rocksdb36NewCompactOnDeletionCollectorFactoryEmmd(ptr dead_on_unwind noalias writable writeonly sret(%"class.std::shared_ptr") align 8 captures(none) %0, i64 noundef %1, i64 noundef %2, double noundef %3) local_unnamed_addr #4 personality ptr @__gxx_personality_v0 {
  %5 = tail call noalias noundef nonnull dereferenceable(56) ptr @_Znwm(i64 noundef 56) #30
  invoke void @_ZN7rocksdb33CompactOnDeletionCollectorFactoryC1Emmd(ptr noundef nonnull align 8 dereferenceable(56) %5, i64 noundef %1, i64 noundef %2, double noundef %3)
          to label %6 unwind label %25

6:                                                ; preds = %4
  store ptr %5, ptr %0, align 8, !tbaa !96
  %7 = getelementptr inbounds nuw i8, ptr %0, i64 8
  store ptr null, ptr %7, align 8, !tbaa !101
  %8 = invoke noalias noundef nonnull dereferenceable(24) ptr @_Znwm(i64 noundef 24) #30
          to label %_ZNSt10shared_ptrIN7rocksdb33CompactOnDeletionCollectorFactoryEEC2IS1_vEEPT_.exit unwind label %9

9:                                                ; preds = %6
  %10 = landingpad { ptr, i32 }
          catch ptr null
  %11 = extractvalue { ptr, i32 } %10, 0
  %12 = tail call ptr @__cxa_begin_catch(ptr %11) #28
  %13 = load ptr, ptr %5, align 8, !tbaa !4
  %14 = getelementptr inbounds nuw i8, ptr %13, i64 8
  %15 = load ptr, ptr %14, align 8
  tail call void %15(ptr noundef nonnull align 8 dereferenceable(56) %5) #28
  invoke void @__cxa_rethrow() #31
          to label %21 unwind label %16

16:                                               ; preds = %9
  %17 = landingpad { ptr, i32 }
          cleanup
  invoke void @__cxa_end_catch()
          to label %common.resume unwind label %18

common.resume:                                    ; preds = %16, %25
  %common.resume.op = phi { ptr, i32 } [ %26, %25 ], [ %17, %16 ]
  resume { ptr, i32 } %common.resume.op

18:                                               ; preds = %16
  %19 = landingpad { ptr, i32 }
          catch ptr null
  %20 = extractvalue { ptr, i32 } %19, 0
  tail call void @__clang_call_terminate(ptr %20) #27
  unreachable

21:                                               ; preds = %9
  unreachable

_ZNSt10shared_ptrIN7rocksdb33CompactOnDeletionCollectorFactoryEEC2IS1_vEEPT_.exit: ; preds = %6
  %22 = getelementptr inbounds nuw i8, ptr %8, i64 8
  store i32 1, ptr %22, align 8, !tbaa !102
  %23 = getelementptr inbounds nuw i8, ptr %8, i64 12
  store i32 1, ptr %23, align 4, !tbaa !104
  store ptr getelementptr inbounds nuw inrange(-16, 40) (i8, ptr @_ZTVSt15_Sp_counted_ptrIPN7rocksdb33CompactOnDeletionCollectorFactoryELN9__gnu_cxx12_Lock_policyE2EE, i64 16), ptr %8, align 8, !tbaa !4
  %24 = getelementptr inbounds nuw i8, ptr %8, i64 16
  store ptr %5, ptr %24, align 8, !tbaa !105
  store ptr %8, ptr %7, align 8, !tbaa !101
  ret void

25:                                               ; preds = %4
  %26 = landingpad { ptr, i32 }
          cleanup
  tail call void @_ZdlPvm(ptr noundef nonnull %5, i64 noundef 56) #29
  br label %common.resume
}